; Function Attrs: mustprogress nounwind uwtable
define internal void @_ZN12_GLOBAL__N_123DXContainerObjectWriterD2Ev(ptr noundef nonnull align 8 dereferenceable(128) %0) unnamed_addr #1 align 2 {
  store ptr getelementptr inbounds inrange(-16, 56) (i8, ptr @_ZTVN12_GLOBAL__N_123DXContainerObjectWriterE, i64 16), ptr %0, align 8
  %2 = getelementptr inbounds nuw i8, ptr %0, i64 120
  %3 = load ptr, ptr %2, align 8
  %.not.i = icmp eq ptr %3, null
  br i1 %.not.i, label %_ZNSt10unique_ptrIN4llvm25MCDXContainerTargetWriterESt14default_deleteIS1_EED2Ev.exit, label %_ZNKSt14default_deleteIN4llvm25MCDXContainerTargetWriterEEclEPS1_.exit.i

_ZNKSt14default_deleteIN4llvm25MCDXContainerTargetWriterEEclEPS1_.exit.i: ; preds = %1
  %4 = load ptr, ptr %3, align 8
  %5 = getelementptr inbounds i8, ptr %4, i64 8
  %6 = load ptr, ptr %5, align 8
  tail call void %6(ptr noundef nonnull align 8 dereferenceable(8) %3) #11
  br label %_ZNSt10unique_ptrIN4llvm25MCDXContainerTargetWriterESt14default_deleteIS1_EED2Ev.exit

_ZNSt10unique_ptrIN4llvm25MCDXContainerTargetWriterESt14default_deleteIS1_EED2Ev.exit: ; preds = %1, %_ZNKSt14default_deleteIN4llvm25MCDXContainerTargetWriterEEclEPS1_.exit.i
  store ptr null, ptr %2, align 8
  tail call void @_ZN4llvm14MCObjectWriterD2Ev(ptr noundef nonnull align 8 dereferenceable(104) %0) #11
  ret void
}